; Function Attrs: mustprogress uwtable
define noundef i32 @utrans_toRules_77(ptr noundef %0, i8 noundef signext %1, ptr noundef %2, i32 noundef %3, ptr noundef %4) local_unnamed_addr #4 personality ptr @__gxx_personality_v0 {
  %6 = alloca %"class.icu_77::UnicodeString", align 8
  %7 = alloca %"class.icu_77::Char16Ptr", align 8
  %8 = icmp eq ptr %4, null
  br i1 %8, label %36, label %9

9:                                                ; preds = %5
  %10 = load i32, ptr %4, align 4, !tbaa !23
  %11 = icmp slt i32 %10, 1
  br i1 %11, label %12, label %36

12:                                               ; preds = %9
  %13 = icmp eq ptr %2, null
  br i1 %13, label %14, label %15

14:                                               ; preds = %12
  %.not18 = icmp eq i32 %3, 0
  br i1 %.not18, label %18, label %17

15:                                               ; preds = %12
  %16 = icmp slt i32 %3, 0
  br i1 %16, label %17, label %18

17:                                               ; preds = %15, %14
  store i32 1, ptr %4, align 4, !tbaa !23
  br label %36

18:                                               ; preds = %15, %14
  call void @llvm.lifetime.start.p0(i64 64, ptr nonnull %6) #10
  store ptr getelementptr inbounds nuw inrange(-16, 88) (i8, ptr @_ZTVN6icu_7713UnicodeStringE, i64 16), ptr %6, align 8, !tbaa !3
  %19 = getelementptr inbounds nuw i8, ptr %6, i64 8
  store i16 2, ptr %19, align 8, !tbaa !20
  %20 = invoke noundef nonnull align 8 dereferenceable(64) ptr @_ZN6icu_7713UnicodeString5setToEPDsii(ptr noundef nonnull align 8 dereferenceable(64) %6, ptr noundef %2, i32 noundef 0, i32 noundef %3)
          to label %21 unwind label %30

21:                                               ; preds = %18
  %22 = load ptr, ptr %0, align 8, !tbaa !3
  %23 = getelementptr inbounds nuw i8, ptr %22, i64 112
  %24 = load ptr, ptr %23, align 8
  %25 = invoke noundef nonnull align 8 dereferenceable(64) ptr %24(ptr noundef nonnull align 8 dereferenceable(84) %0, ptr noundef nonnull align 8 dereferenceable(64) %6, i8 noundef signext %1)
          to label %26 unwind label %30

26:                                               ; preds = %21
  store ptr %2, ptr %7, align 8, !tbaa !39
  %27 = invoke noundef i32 @_ZNK6icu_7713UnicodeString7extractENS_9Char16PtrEiR10UErrorCode(ptr noundef nonnull align 8 dereferenceable(64) %6, ptr noundef nonnull %7, i32 noundef %3, ptr noundef nonnull align 4 dereferenceable(4) %4)
          to label %28 unwind label %32

28:                                               ; preds = %26
  %29 = load ptr, ptr %7, align 8, !tbaa !39
  call void asm sideeffect "", "rm,~{memory},~{dirflag},~{fpsr},~{flags}"(ptr %29) #10, !srcloc !41
  call void @_ZN6icu_7713UnicodeStringD1Ev(ptr noundef nonnull align 8 dereferenceable(64) %6) #10
  call void @llvm.lifetime.end.p0(i64 64, ptr nonnull %6) #10
  br label %36

30:                                               ; preds = %21, %18
  %31 = landingpad { ptr, i32 }
          cleanup
  br label %35

32:                                               ; preds = %26
  %33 = landingpad { ptr, i32 }
          cleanup
  %34 = load ptr, ptr %7, align 8, !tbaa !39
  call void asm sideeffect "", "rm,~{memory},~{dirflag},~{fpsr},~{flags}"(ptr %34) #10, !srcloc !41
  br label %35

35:                                               ; preds = %32, %30
  %.pn = phi { ptr, i32 } [ %33, %32 ], [ %31, %30 ]
  call void @_ZN6icu_7713UnicodeStringD1Ev(ptr noundef nonnull align 8 dereferenceable(64) %6) #10
  call void @llvm.lifetime.end.p0(i64 64, ptr nonnull %6) #10
  resume { ptr, i32 } %.pn

36:                                               ; preds = %5, %9, %28, %17
  %.016 = phi i32 [ 0, %17 ], [ %27, %28 ], [ 0, %9 ], [ 0, %5 ]
  ret i32 %.016
}